(dp1
S'verbose'
p2
I1
sS'output_size'
p3
I2
sS'out_dir'
p4
S'experiments/trained_models'
p5
sS'eval_res_folder'
p6
NsS'x_val_path'
p7
S'experiments/data/x_val_seq.pickle'
p8
sS'n_epochs'
p9
I2
sS'out_activation'
p10
S'softmax'
p11
sS'eval_weights_ckpt'
p12
NsS'layers'
p13
I1
sS'embed_dim'
p14
I32
sS'y_train_path'
p15
S'experiments/data/y_train_seq.pickle'
p16
sS'input_dropout'
p17
F0.10000000000000001
sS'input_size'
p18
I5002
sS'recurrent_dropout'
p19
F0
sS'kernel_initializer'
p20
S'glorot_uniform'
p21
sS'hidden_dims'
p22
(lp23
I32
asS'params_file'
p24
NsS'learning_rate'
p25
F0.01
sS'y_val_path'
p26
S'experiments/data/y_val_seq.pickle'
p27
sS'eval_x_data'
p28
NsS'batch_size'
p29
I128
sS'x_train_path'
p30
S'experiments/data/x_train_seq.pickle'
p31
sS'bidirectional'
p32
I00
sS'dropouts'
p33
(lp34
F0
asS'eval_y_data'
p35
NsS'early_stopping'
p36
I01
sS'loss'
p37
S'categorical_crossentropy'
p38
sS'recurrent_regularizer'
p39
NsS'save_checkpoint'
p40
I01
sS'hidden_activation'
p41
S'relu'
p42
sS'max_seq_length'
p43
I150
sS'kernel_regularizer'
p44
NsS'rnn_unit_type'
p45
S'rnn'
p46
sS'model_type'
p47
S'rnn'
p48
sS'emb_trainable'
p49
I01
sS'model_name'
p50
S'rnn'
p51
s.